; ModuleID = '31/196.c'
source_filename = "31/196.c"
target datalayout = "e-m:e-p270:32:32-p271:32:32-p272:64:64-i64:64-f80:128-n8:16:32:64-S128"
target triple = "x86_64-pc-linux-gnu"

%struct.student = type { [50 x i8], %struct.student* }

@.str = private unnamed_addr constant [4 x i8] c"%s\0A\00", align 1

; Function Attrs: noinline nounwind uwtable
define dso_local i32 @main() #0 {
  %1 = alloca i32, align 4
  %2 = alloca %struct.student*, align 8
  store i32 0, i32* %1, align 4
  %3 = call %struct.student* @create_and_reverse()
  store %struct.student* %3, %struct.student** %2, align 8
  %4 = load %struct.student*, %struct.student** %2, align 8
  call void @print(%struct.student* %4)
  ret i32 0
}

; Function Attrs: noinline nounwind uwtable
define dso_local void @print(%struct.student* %0) #0 {
  %2 = alloca %struct.student*, align 8
  %3 = alloca %struct.student*, align 8
  store %struct.student* %0, %struct.student** %2, align 8
  %4 = load %struct.student*, %struct.student** %2, align 8
  store %struct.student* %4, %struct.student** %3, align 8
  br label %5

5:                                                ; preds = %19, %1
  %6 = load %struct.student*, %struct.student** %3, align 8
  %7 = getelementptr inbounds %struct.student, %struct.student* %6, i32 0, i32 0
  %8 = getelementptr inbounds [50 x i8], [50 x i8]* %7, i64 0, i64 0
  %9 = call i32 (i8*, ...) @printf(i8* getelementptr inbounds ([4 x i8], [4 x i8]* @.str, i64 0, i64 0), i8* %8)
  %10 = load %struct.student*, %struct.student** %3, align 8
  %11 = getelementptr inbounds %struct.student, %struct.student* %10, i32 0, i32 1
  %12 = load %struct.student*, %struct.student** %11, align 8
  %13 = icmp eq %struct.student* %12, null
  br i1 %13, label %14, label %15

14:                                               ; preds = %5
  br label %20

15:                                               ; preds = %5
  %16 = load %struct.student*, %struct.student** %3, align 8
  %17 = getelementptr inbounds %struct.student, %struct.student* %16, i32 0, i32 1
  %18 = load %struct.student*, %struct.student** %17, align 8
  store %struct.student* %18, %struct.student** %3, align 8
  br label %19

19:                                               ; preds = %15
  br label %5

20:                                               ; preds = %14
  ret void
}

; Function Attrs: noinline nounwind uwtable
define dso_local %struct.student* @create_and_reverse() #0 {
  %1 = alloca %struct.student*, align 8
  %2 = alloca %struct.student*, align 8
  %3 = alloca %struct.student*, align 8
  %4 = alloca [50 x i8], align 16
  %5 = bitcast [50 x i8]* %4 to i8*
  call void @llvm.memset.p0i8.i64(i8* align 16 %5, i8 0, i64 50, i1 false)
  %6 = bitcast i8* %5 to <{ i8, i8, i8, [47 x i8] }>*
  %7 = getelementptr inbounds <{ i8, i8, i8, [47 x i8] }>, <{ i8, i8, i8, [47 x i8] }>* %6, i32 0, i32 0
  store i8 101, i8* %7, align 16
  %8 = getelementptr inbounds <{ i8, i8, i8, [47 x i8] }>, <{ i8, i8, i8, [47 x i8] }>* %6, i32 0, i32 1
  store i8 110, i8* %8, align 1
  %9 = getelementptr inbounds <{ i8, i8, i8, [47 x i8] }>, <{ i8, i8, i8, [47 x i8] }>* %6, i32 0, i32 2
  store i8 100, i8* %9, align 2
  %10 = call noalias i8* @malloc(i64 100) #5
  %11 = bitcast i8* %10 to %struct.student*
  store %struct.student* %11, %struct.student** %1, align 8
  %12 = load %struct.student*, %struct.student** %1, align 8
  store %struct.student* %12, %struct.student** %2, align 8
  %13 = load %struct.student*, %struct.student** %1, align 8
  %14 = getelementptr inbounds %struct.student, %struct.student* %13, i32 0, i32 0
  %15 = getelementptr inbounds [50 x i8], [50 x i8]* %14, i64 0, i64 0
  %16 = call i32 (i8*, ...) bitcast (i32 (...)* @gets to i32 (i8*, ...)*)(i8* %15)
  br label %17

17:                                               ; preds = %36, %0
  %18 = call noalias i8* @malloc(i64 100) #5
  %19 = bitcast i8* %18 to %struct.student*
  store %struct.student* %19, %struct.student** %1, align 8
  %20 = load %struct.student*, %struct.student** %1, align 8
  %21 = getelementptr inbounds %struct.student, %struct.student* %20, i32 0, i32 0
  %22 = getelementptr inbounds [50 x i8], [50 x i8]* %21, i64 0, i64 0
  %23 = call i32 (i8*, ...) bitcast (i32 (...)* @gets to i32 (i8*, ...)*)(i8* %22)
  %24 = load %struct.student*, %struct.student** %1, align 8
  %25 = getelementptr inbounds %struct.student, %struct.student* %24, i32 0, i32 0
  %26 = getelementptr inbounds [50 x i8], [50 x i8]* %25, i64 0, i64 0
  %27 = getelementptr inbounds [50 x i8], [50 x i8]* %4, i64 0, i64 0
  %28 = call i32 @strcmp(i8* %26, i8* %27) #6
  %29 = icmp ne i32 %28, 0
  br i1 %29, label %30, label %34

30:                                               ; preds = %17
  %31 = load %struct.student*, %struct.student** %2, align 8
  %32 = load %struct.student*, %struct.student** %1, align 8
  %33 = getelementptr inbounds %struct.student, %struct.student* %32, i32 0, i32 1
  store %struct.student* %31, %struct.student** %33, align 8
  br label %36

34:                                               ; preds = %17
  %35 = load %struct.student*, %struct.student** %2, align 8
  store %struct.student* %35, %struct.student** %3, align 8
  br label %38

36:                                               ; preds = %30
  %37 = load %struct.student*, %struct.student** %1, align 8
  store %struct.student* %37, %struct.student** %2, align 8
  br label %17

38:                                               ; preds = %34
  %39 = load %struct.student*, %struct.student** %3, align 8
  ret %struct.student* %39
}

; Function Attrs: argmemonly nounwind willreturn
declare void @llvm.memset.p0i8.i64(i8* nocapture writeonly, i8, i64, i1 immarg) #1

; Function Attrs: nounwind
declare dso_local noalias i8* @malloc(i64) #2

declare dso_local i32 @gets(...) #3

; Function Attrs: nounwind readonly
declare dso_local i32 @strcmp(i8*, i8*) #4

declare dso_local i32 @printf(i8*, ...) #3


!llvm.module.flags = !{!0}
!llvm.ident = !{!1}

!0 = !{i32 1, !"wchar_size", i32 4}
!1 = !{!"clang version 10.0.0-4ubuntu1 "}
